target datalayout = "e-m:e-p270:32:32-p271:32:32-p272:64:64-i64:64-i128:128-f80:128-n8:16:32:64-S128"
target triple = "x86_64-pc-linux-gnu"

; Function Attrs: mustprogress uwtable
define void @_ZN7rocksdb28PartitionedFilterBlockReader16PrefixesMayMatchEPNS_15MultiGetContext5RangeEPKNS_14SliceTransformEPNS_23BlockCacheLookupContextERKNS_11ReadOptionsE(ptr noundef nonnull align 8 dereferenceable(120) %0, ptr noundef %1, ptr noundef %2, ptr noundef %3, ptr noundef nonnull align 8 dereferenceable(168) %4) unnamed_addr #6 align 2 {
  %6 = alloca ptr, align 8
  %7 = alloca ptr, align 8
  %8 = alloca ptr, align 8
  %9 = alloca ptr, align 8
  %10 = alloca ptr, align 8
  %11 = alloca { i64, i64 }, align 8
  store ptr %0, ptr %6, align 8, !tbaa !153
  store ptr %1, ptr %7, align 8, !tbaa !188
  store ptr %2, ptr %8, align 8, !tbaa !25
  store ptr %3, ptr %9, align 8, !tbaa !176
  store ptr %4, ptr %10, align 8, !tbaa !172
  %12 = load ptr, ptr %6, align 8
  %13 = load ptr, ptr %7, align 8, !tbaa !188
  %14 = load ptr, ptr %8, align 8, !tbaa !25
  %15 = load ptr, ptr %9, align 8, !tbaa !176
  %16 = load ptr, ptr %10, align 8, !tbaa !172
  call void @llvm.lifetime.start.p0(i64 16, ptr %11) #5
  store { i64, i64 } { i64 41, i64 0 }, ptr %11, align 8, !tbaa !144
  call void @_ZNK7rocksdb28PartitionedFilterBlockReader8MayMatchEPNS_15MultiGetContext5RangeEPKNS_14SliceTransformEPNS_23BlockCacheLookupContextERKNS_11ReadOptionsEMNS_21FullFilterBlockReaderEFvS3_S6_S8_SB_E(ptr noundef nonnull align 8 dereferenceable(120) %12, ptr noundef %13, ptr noundef %14, ptr noundef %15, ptr noundef nonnull align 8 dereferenceable(168) %16, ptr noundef byval({ i64, i64 }) align 8 %11)
  call void @llvm.lifetime.end.p0(i64 16, ptr %11) #5
  ret void
}