; Function Attrs: mustprogress uwtable
define void @_ZN7rocksdb28PartitionedFilterBlockReader16PrefixesMayMatchEPNS_15MultiGetContext5RangeEPKNS_14SliceTransformEPNS_23BlockCacheLookupContextERKNS_11ReadOptionsE(ptr noundef nonnull align 8 dereferenceable(120) %0, ptr noundef captures(none) %1, ptr noundef %2, ptr noundef %3, ptr noundef nonnull align 8 dereferenceable(168) %4) unnamed_addr #3 align 2 {
  %6 = alloca { i64, i64 }, align 8
  call void @llvm.lifetime.start.p0(i64 16, ptr nonnull %6) #22
  store i64 41, ptr %6, align 8, !tbaa !69
  %.fca.1.gep = getelementptr inbounds nuw i8, ptr %6, i64 8
  store i64 0, ptr %.fca.1.gep, align 8, !tbaa !69
  tail call void @_ZNK7rocksdb28PartitionedFilterBlockReader8MayMatchEPNS_15MultiGetContext5RangeEPKNS_14SliceTransformEPNS_23BlockCacheLookupContextERKNS_11ReadOptionsEMNS_21FullFilterBlockReaderEFvS3_S6_S8_SB_E(ptr noundef nonnull align 8 dereferenceable(120) %0, ptr noundef %1, ptr noundef %2, ptr noundef %3, ptr noundef nonnull align 8 dereferenceable(168) %4, ptr noundef nonnull byval({ i64, i64 }) align 8 %6)
  call void @llvm.lifetime.end.p0(i64 16, ptr nonnull %6) #22
  ret void
}